ccopy_reg
_reconstructor
p0
(cgoogle.oauth2.credentials
Credentials
p1
c__builtin__
object
p2
Ntp3
Rp4
(dp5
S'_token_uri'
p6
Vhttps://oauth2.googleapis.com/token
p7
sS'_client_secret'
p8
VrR_0UC0Ahzk9fZSnf8x1WaVk
p9
sS'_id_token'
p10
NsS'token'
p11
Vya29.Glt6B9SnteEZiaISE15yMoaiKFFG2Vkbi9f2-VHnmSREBRYnylcQQlF5-CWVJZVOmkjrKzoKDtQeoHwJccR7_TFjOO7B1X0y1KzPdjZ9z3mUYsm7A62IVwLxyp3R
p12
sS'_refresh_token'
p13
V1/yUPLWQ4riPO8T3Png4-e69hHVBzEX0vrw2uRYeQ5pfc
p14
sS'_scopes'
p15
(lp16
S'https://www.googleapis.com/auth/calendar'
p17
asS'_client_id'
p18
V1041235626345-bqq129smjca3g3bb0jh917p23n4hh3us.apps.googleusercontent.com
p19
sS'expiry'
p20
cdatetime
datetime
p21
(S'\x07\xe3\t\x05\x13\x02\x14\r\xa40'
p22
tp23
Rp24
sb.