ccopy_reg
_reconstructor
p0
(cgoogle.oauth2.credentials
Credentials
p1
c__builtin__
object
p2
Ntp3
Rp4
(dp5
S'_token_uri'
p6
Vhttps://oauth2.googleapis.com/token
p7
sS'_scopes'
p8
(lp9
S'https://www.googleapis.com/auth/calendar'
p10
asS'_id_token'
p11
NsS'token'
p12
Vya29.GlyABw9frA6audKmJ5KxOm2odkV6Rdtd9EPcmEy2ziGcLD08QOfJ3ugBiYz0ZRQRv3qRiqjFdqduTUUM54Hd43vE3CetqNUDwm-oaMEpAq3XyEaOsPOydfzvb4YAEQ
p13
sS'_refresh_token'
p14
V1/yUPLWQ4riPO8T3Png4-e69hHVBzEX0vrw2uRYeQ5pfc
p15
sS'_client_secret'
p16
VrR_0UC0Ahzk9fZSnf8x1WaVk
p17
sS'_client_id'
p18
V1041235626345-bqq129smjca3g3bb0jh917p23n4hh3us.apps.googleusercontent.com
p19
sS'expiry'
p20
cdatetime
datetime
p21
(S'\x07\xe3\t\x0b\x01\x0f9\x0f#\xaf'
p22
tp23
Rp24
sb.